target datalayout = "e-m:e-p270:32:32-p271:32:32-p272:64:64-i64:64-i128:128-f80:128-n8:16:32:64-S128"
target triple = "x86_64-pc-linux-gnu"

%"struct.ue2::Report" = type { i32, i8, i64, i64, i64, i32, i32, i8, i32, i32, i32, i64, i64 }
%"struct.ue2::external_report_info" = type { i8, i32 }
%"class.ue2::ExpressionInfo" = type <{ i32, i32, i8, i8, i8, i8, i32, i64, i64, i64, i32, i32, i8, [7 x i8] }>

; Function Attrs: mustprogress nounwind uwtable
define linkonce_odr hidden void @_ZN3ue26ReportC2ENS_10ReportTypeEj(ptr noundef nonnull align 8 dereferenceable(72) %0, i32 noundef %1, i32 noundef %2) unnamed_addr #1 comdat align 2 {
  %4 = alloca ptr, align 8
  %5 = alloca i32, align 4
  %6 = alloca i32, align 4
  store ptr %0, ptr %4, align 8
  store i32 %1, ptr %5, align 4
  store i32 %2, ptr %6, align 4
  %7 = load ptr, ptr %4, align 8
  %8 = getelementptr inbounds nuw %"struct.ue2::Report", ptr %7, i32 0, i32 0
  %9 = load i32, ptr %5, align 4
  store i32 %9, ptr %8, align 8
  %10 = getelementptr inbounds nuw %"struct.ue2::Report", ptr %7, i32 0, i32 1
  store i8 0, ptr %10, align 4
  %11 = getelementptr inbounds nuw %"struct.ue2::Report", ptr %7, i32 0, i32 2
  store i64 0, ptr %11, align 8
  %12 = getelementptr inbounds nuw %"struct.ue2::Report", ptr %7, i32 0, i32 3
  store i64 -1, ptr %12, align 8
  %13 = getelementptr inbounds nuw %"struct.ue2::Report", ptr %7, i32 0, i32 4
  store i64 0, ptr %13, align 8
  %14 = getelementptr inbounds nuw %"struct.ue2::Report", ptr %7, i32 0, i32 5
  store i32 -1, ptr %14, align 8
  %15 = getelementptr inbounds nuw %"struct.ue2::Report", ptr %7, i32 0, i32 6
  store i32 -1, ptr %15, align 4
  %16 = getelementptr inbounds nuw %"struct.ue2::Report", ptr %7, i32 0, i32 7
  store i8 0, ptr %16, align 8
  %17 = getelementptr inbounds nuw %"struct.ue2::Report", ptr %7, i32 0, i32 8
  store i32 0, ptr %17, align 4
  %18 = getelementptr inbounds nuw %"struct.ue2::Report", ptr %7, i32 0, i32 9
  %19 = load i32, ptr %6, align 4
  store i32 %19, ptr %18, align 8
  %20 = getelementptr inbounds nuw %"struct.ue2::Report", ptr %7, i32 0, i32 10
  store i32 0, ptr %20, align 4
  %21 = getelementptr inbounds nuw %"struct.ue2::Report", ptr %7, i32 0, i32 11
  store i64 0, ptr %21, align 8
  %22 = getelementptr inbounds nuw %"struct.ue2::Report", ptr %7, i32 0, i32 12
  store i64 0, ptr %22, align 8
  ret void
}

; Function Attrs: inlinehint mustprogress uwtable
define internal void @_ZN3ue2L13makeECallbackEjijb(ptr dead_on_unwind noalias writable sret(%"struct.ue2::Report") align 8 %0, i32 noundef %1, i32 noundef %2, i32 noundef %3, i1 noundef zeroext %4) #8 {
  %6 = alloca i32, align 4
  %7 = alloca i32, align 4
  %8 = alloca i32, align 4
  %9 = alloca i8, align 1
  store i32 %1, ptr %6, align 4
  store i32 %2, ptr %7, align 4
  store i32 %3, ptr %8, align 4
  %10 = zext i1 %4 to i8
  store i8 %10, ptr %9, align 1
  %11 = load i32, ptr %6, align 4
  call void @_ZN3ue26ReportC2ENS_10ReportTypeEj(ptr noundef nonnull align 8 dereferenceable(72) %0, i32 noundef 0, i32 noundef %11)
  %12 = load i32, ptr %7, align 4
  %13 = getelementptr inbounds nuw %"struct.ue2::Report", ptr %0, i32 0, i32 8
  store i32 %12, ptr %13, align 4
  %14 = load i32, ptr %8, align 4
  %15 = getelementptr inbounds nuw %"struct.ue2::Report", ptr %0, i32 0, i32 5
  store i32 %14, ptr %15, align 8
  %16 = load i8, ptr %9, align 1, !range !5, !noundef !6
  %17 = trunc i8 %16 to i1
  %18 = getelementptr inbounds nuw %"struct.ue2::Report", ptr %0, i32 0, i32 7
  %19 = zext i1 %17 to i8
  store i8 %19, ptr %18, align 8
  ret void
}

; Function Attrs: mustprogress nounwind uwtable
define linkonce_odr hidden void @_ZN3ue220external_report_infoC2Ebj(ptr noundef nonnull align 4 dereferenceable(8) %0, i1 noundef zeroext %1, i32 noundef %2) unnamed_addr #1 comdat align 2 {
  %4 = alloca ptr, align 8
  %5 = alloca i8, align 1
  %6 = alloca i32, align 4
  store ptr %0, ptr %4, align 8
  %7 = zext i1 %1 to i8
  store i8 %7, ptr %5, align 1
  store i32 %2, ptr %6, align 4
  %8 = load ptr, ptr %4, align 8
  %9 = getelementptr inbounds nuw %"struct.ue2::external_report_info", ptr %8, i32 0, i32 0
  %10 = load i8, ptr %5, align 1, !range !5, !noundef !6
  %11 = trunc i8 %10 to i1
  %12 = zext i1 %11 to i8
  store i8 %12, ptr %9, align 4
  %13 = getelementptr inbounds nuw %"struct.ue2::external_report_info", ptr %8, i32 0, i32 1
  %14 = load i32, ptr %6, align 4
  store i32 %14, ptr %13, align 4
  ret void
}

; Function Attrs: mustprogress uwtable
define hidden void @_ZN3ue213ReportManager22getBasicInternalReportERKNS_14ExpressionInfoEi(ptr dead_on_unwind noalias writable sret(%"struct.ue2::Report") align 8 %0, ptr noundef nonnull align 8 dereferenceable(505) %1, ptr noundef nonnull align 8 dereferenceable(49) %2, i32 noundef %3) #4 align 2 {
  %5 = alloca ptr, align 8
  %6 = alloca ptr, align 8
  %7 = alloca i32, align 4
  %8 = alloca %"struct.ue2::external_report_info", align 4
  %9 = alloca i32, align 4
  store ptr %1, ptr %5, align 8
  store ptr %2, ptr %6, align 8
  store i32 %3, ptr %7, align 4
  %10 = load ptr, ptr %5, align 8
  %11 = load ptr, ptr %6, align 8
  %12 = getelementptr inbounds nuw %"class.ue2::ExpressionInfo", ptr %11, i32 0, i32 1
  %13 = load i32, ptr %12, align 4
  call void @llvm.lifetime.start.p0(i64 8, ptr %8) #19
  %14 = load ptr, ptr %6, align 8
  %15 = getelementptr inbounds nuw %"class.ue2::ExpressionInfo", ptr %14, i32 0, i32 3
  %16 = load i8, ptr %15, align 1, !range !5, !noundef !6
  %17 = trunc i8 %16 to i1
  %18 = load ptr, ptr %6, align 8
  %19 = getelementptr inbounds nuw %"class.ue2::ExpressionInfo", ptr %18, i32 0, i32 0
  %20 = load i32, ptr %19, align 8
  call void @_ZN3ue220external_report_infoC2Ebj(ptr noundef nonnull align 4 dereferenceable(8) %8, i1 noundef zeroext %17, i32 noundef %20)
  call void @_ZN3ue213ReportManager17registerExtReportEjRKNS_20external_report_infoE(ptr noundef nonnull align 8 dereferenceable(505) %10, i32 noundef %13, ptr noundef nonnull align 4 dereferenceable(8) %8)
  call void @llvm.lifetime.end.p0(i64 8, ptr %8) #19
  call void @llvm.lifetime.start.p0(i64 4, ptr %9) #19
  store i32 -1, ptr %9, align 4
  %21 = load ptr, ptr %6, align 8
  %22 = getelementptr inbounds nuw %"class.ue2::ExpressionInfo", ptr %21, i32 0, i32 3
  %23 = load i8, ptr %22, align 1, !range !5, !noundef !6
  %24 = trunc i8 %23 to i1
  br i1 %24, label %25, label %30

25:                                               ; preds = %4
  %26 = load ptr, ptr %6, align 8
  %27 = getelementptr inbounds nuw %"class.ue2::ExpressionInfo", ptr %26, i32 0, i32 1
  %28 = load i32, ptr %27, align 4
  %29 = call noundef i32 @_ZN3ue213ReportManager17getExhaustibleKeyEj(ptr noundef nonnull align 8 dereferenceable(505) %10, i32 noundef %28)
  store i32 %29, ptr %9, align 4
  br label %30

30:                                               ; preds = %25, %4
  %31 = load ptr, ptr %6, align 8
  %32 = getelementptr inbounds nuw %"class.ue2::ExpressionInfo", ptr %31, i32 0, i32 1
  %33 = load i32, ptr %32, align 4
  %34 = load i32, ptr %7, align 4
  %35 = load i32, ptr %9, align 4
  %36 = load ptr, ptr %6, align 8
  %37 = getelementptr inbounds nuw %"class.ue2::ExpressionInfo", ptr %36, i32 0, i32 12
  %38 = load i8, ptr %37, align 8, !range !5, !noundef !6
  %39 = trunc i8 %38 to i1
  call void @_ZN3ue2L13makeECallbackEjijb(ptr dead_on_unwind writable sret(%"struct.ue2::Report") align 8 %0, i32 noundef %33, i32 noundef %34, i32 noundef %35, i1 noundef zeroext %39)
  call void @llvm.lifetime.end.p0(i64 4, ptr %9) #19
  ret void
}