; Function Attrs: mustprogress uwtable
define hidden void @_ZN3ue213ReportManager22getBasicInternalReportERKNS_14ExpressionInfoEi(ptr dead_on_unwind noalias writable writeonly sret(%"struct.ue2::Report") align 8 captures(none) initializes((0, 5), (8, 41), (44, 72)) %0, ptr noundef nonnull align 8 dereferenceable(505) %1, ptr noundef nonnull readonly align 8 captures(none) dereferenceable(49) %2, i32 noundef %3) local_unnamed_addr #1 align 2 {
  %5 = alloca %"struct.ue2::external_report_info", align 4
  %6 = getelementptr inbounds nuw i8, ptr %2, i64 4
  %7 = load i32, ptr %6, align 4
  call void @llvm.lifetime.start.p0(i64 8, ptr nonnull %5) #21
  %8 = getelementptr inbounds nuw i8, ptr %2, i64 9
  %9 = load i8, ptr %8, align 1, !range !18, !noundef !19
  %10 = load i32, ptr %2, align 8
  store i8 %9, ptr %5, align 4
  %11 = getelementptr inbounds nuw i8, ptr %5, i64 4
  store i32 %10, ptr %11, align 4
  call void @_ZN3ue213ReportManager17registerExtReportEjRKNS_20external_report_infoE(ptr noundef nonnull align 8 dereferenceable(505) %1, i32 noundef %7, ptr noundef nonnull align 4 dereferenceable(8) %5)
  call void @llvm.lifetime.end.p0(i64 8, ptr nonnull %5) #21
  %12 = load i8, ptr %8, align 1, !range !18, !noundef !19
  %13 = trunc nuw i8 %12 to i1
  br i1 %13, label %14, label %17

14:                                               ; preds = %4
  %15 = load i32, ptr %6, align 4
  %16 = call noundef i32 @_ZN3ue213ReportManager17getExhaustibleKeyEj(ptr noundef nonnull align 8 dereferenceable(505) %1, i32 noundef %15)
  br label %17

17:                                               ; preds = %14, %4
  %.0 = phi i32 [ %16, %14 ], [ -1, %4 ]
  %18 = load i32, ptr %6, align 4
  %19 = getelementptr inbounds nuw i8, ptr %2, i64 48
  %20 = load i8, ptr %19, align 8, !range !18, !noundef !19
  store i32 0, ptr %0, align 8, !alias.scope !50
  %21 = getelementptr inbounds nuw i8, ptr %0, i64 4
  store i8 0, ptr %21, align 4, !alias.scope !50
  %22 = getelementptr inbounds nuw i8, ptr %0, i64 8
  store i64 0, ptr %22, align 8, !alias.scope !50
  %23 = getelementptr inbounds nuw i8, ptr %0, i64 16
  store i64 -1, ptr %23, align 8, !alias.scope !50
  %24 = getelementptr inbounds nuw i8, ptr %0, i64 24
  store i64 0, ptr %24, align 8, !alias.scope !50
  %25 = getelementptr inbounds nuw i8, ptr %0, i64 32
  %26 = getelementptr inbounds nuw i8, ptr %0, i64 36
  store i32 -1, ptr %26, align 4, !alias.scope !50
  %27 = getelementptr inbounds nuw i8, ptr %0, i64 40
  %28 = getelementptr inbounds nuw i8, ptr %0, i64 44
  %29 = getelementptr inbounds nuw i8, ptr %0, i64 48
  store i32 %18, ptr %29, align 8, !alias.scope !50
  %30 = getelementptr inbounds nuw i8, ptr %0, i64 52
  call void @llvm.memset.p0.i64(ptr noundef nonnull align 4 dereferenceable(20) %30, i8 0, i64 20, i1 false), !alias.scope !50
  store i32 %3, ptr %28, align 4, !alias.scope !50
  store i32 %.0, ptr %25, align 8, !alias.scope !50
  store i8 %20, ptr %27, align 8, !alias.scope !50
  ret void
}